target datalayout = "e-m:e-p270:32:32-p271:32:32-p272:64:64-i64:64-i128:128-f80:128-n8:16:32:64-S128"
target triple = "x86_64-pc-linux-gnu"

%union.av_intfloat32 = type { i32 }
%struct.Half2FloatTables = type { [3072 x i32], [64 x i32], [64 x i16] }

; Function Attrs: alwaysinline nounwind willreturn memory(none) uwtable
define internal float @av_clipf_c(float noundef %0, float noundef %1, float noundef %2) #4 {
  %4 = alloca float, align 4
  %5 = alloca float, align 4
  %6 = alloca float, align 4
  store float %0, ptr %4, align 4, !tbaa !135
  store float %1, ptr %5, align 4, !tbaa !135
  store float %2, ptr %6, align 4, !tbaa !135
  %7 = load float, ptr %4, align 4, !tbaa !135
  %8 = load float, ptr %5, align 4, !tbaa !135
  %9 = fcmp nsz ogt float %7, %8
  br i1 %9, label %10, label %12

10:                                               ; preds = %3
  %11 = load float, ptr %4, align 4, !tbaa !135
  br label %14

12:                                               ; preds = %3
  %13 = load float, ptr %5, align 4, !tbaa !135
  br label %14

14:                                               ; preds = %12, %10
  %15 = phi nsz float [ %11, %10 ], [ %13, %12 ]
  %16 = load float, ptr %6, align 4, !tbaa !135
  %17 = fcmp nsz ogt float %15, %16
  br i1 %17, label %18, label %20

18:                                               ; preds = %14
  %19 = load float, ptr %6, align 4, !tbaa !135
  br label %30

20:                                               ; preds = %14
  %21 = load float, ptr %4, align 4, !tbaa !135
  %22 = load float, ptr %5, align 4, !tbaa !135
  %23 = fcmp nsz ogt float %21, %22
  br i1 %23, label %24, label %26

24:                                               ; preds = %20
  %25 = load float, ptr %4, align 4, !tbaa !135
  br label %28

26:                                               ; preds = %20
  %27 = load float, ptr %5, align 4, !tbaa !135
  br label %28

28:                                               ; preds = %26, %24
  %29 = phi nsz float [ %25, %24 ], [ %27, %26 ]
  br label %30

30:                                               ; preds = %28, %18
  %31 = phi nsz float [ %19, %18 ], [ %29, %28 ]
  ret float %31
}

; Function Attrs: alwaysinline nounwind uwtable
define internal float @av_int2float(i32 noundef %0) #3 {
  %2 = alloca i32, align 4
  %3 = alloca %union.av_intfloat32, align 4
  store i32 %0, ptr %2, align 4, !tbaa !30
  call void @llvm.lifetime.start.p0(i64 4, ptr %3) #9
  %4 = load i32, ptr %2, align 4, !tbaa !30
  store i32 %4, ptr %3, align 4, !tbaa !36
  %5 = load float, ptr %3, align 4, !tbaa !36
  call void @llvm.lifetime.end.p0(i64 4, ptr %3) #9
  ret float %5
}

; Function Attrs: inlinehint nounwind uwtable
define internal i32 @half2float(i16 noundef zeroext %0, ptr noundef %1) #6 {
  %3 = alloca i16, align 2
  %4 = alloca ptr, align 8
  %5 = alloca i32, align 4
  store i16 %0, ptr %3, align 2, !tbaa !44
  store ptr %1, ptr %4, align 8, !tbaa !137
  call void @llvm.lifetime.start.p0(i64 4, ptr %5) #9
  %6 = load ptr, ptr %4, align 8, !tbaa !137
  %7 = getelementptr inbounds nuw %struct.Half2FloatTables, ptr %6, i32 0, i32 0
  %8 = load ptr, ptr %4, align 8, !tbaa !137
  %9 = getelementptr inbounds nuw %struct.Half2FloatTables, ptr %8, i32 0, i32 2
  %10 = load i16, ptr %3, align 2, !tbaa !44
  %11 = zext i16 %10 to i32
  %12 = ashr i32 %11, 10
  %13 = sext i32 %12 to i64
  %14 = getelementptr inbounds [64 x i16], ptr %9, i64 0, i64 %13
  %15 = load i16, ptr %14, align 2, !tbaa !44
  %16 = zext i16 %15 to i32
  %17 = load i16, ptr %3, align 2, !tbaa !44
  %18 = zext i16 %17 to i32
  %19 = and i32 %18, 1023
  %20 = add nsw i32 %16, %19
  %21 = sext i32 %20 to i64
  %22 = getelementptr inbounds [3072 x i32], ptr %7, i64 0, i64 %21
  %23 = load i32, ptr %22, align 4, !tbaa !30
  %24 = load ptr, ptr %4, align 8, !tbaa !137
  %25 = getelementptr inbounds nuw %struct.Half2FloatTables, ptr %24, i32 0, i32 1
  %26 = load i16, ptr %3, align 2, !tbaa !44
  %27 = zext i16 %26 to i32
  %28 = ashr i32 %27, 10
  %29 = sext i32 %28 to i64
  %30 = getelementptr inbounds [64 x i32], ptr %25, i64 0, i64 %29
  %31 = load i32, ptr %30, align 4, !tbaa !30
  %32 = add i32 %23, %31
  store i32 %32, ptr %5, align 4, !tbaa !30
  %33 = load i32, ptr %5, align 4, !tbaa !30
  call void @llvm.lifetime.end.p0(i64 4, ptr %5) #9
  ret i32 %33
}

; Function Attrs: alwaysinline nounwind willreturn memory(none) uwtable
define internal zeroext i16 @av_bswap16(i16 noundef zeroext %0) #4 {
  %2 = alloca i16, align 2
  store i16 %0, ptr %2, align 2, !tbaa !44
  %3 = load i16, ptr %2, align 2, !tbaa !44
  %4 = zext i16 %3 to i32
  %5 = ashr i32 %4, 8
  %6 = load i16, ptr %2, align 2, !tbaa !44
  %7 = zext i16 %6 to i32
  %8 = shl i32 %7, 8
  %9 = or i32 %5, %8
  %10 = trunc i32 %9 to i16
  store i16 %10, ptr %2, align 2, !tbaa !44
  %11 = load i16, ptr %2, align 2, !tbaa !44
  ret i16 %11
}

; Function Attrs: alwaysinline nounwind uwtable
define internal void @read_yaf16_alpha_c(ptr noundef %0, ptr noundef %1, ptr noundef %2, ptr noundef %3, i32 noundef %4, i32 noundef %5, ptr noundef %6, ptr noundef %7) #3 {
  %9 = alloca ptr, align 8
  %10 = alloca ptr, align 8
  %11 = alloca ptr, align 8
  %12 = alloca ptr, align 8
  %13 = alloca i32, align 4
  %14 = alloca i32, align 4
  %15 = alloca ptr, align 8
  %16 = alloca ptr, align 8
  %17 = alloca ptr, align 8
  %18 = alloca i32, align 4
  store ptr %0, ptr %9, align 8, !tbaa !34
  store ptr %1, ptr %10, align 8, !tbaa !34
  store ptr %2, ptr %11, align 8, !tbaa !34
  store ptr %3, ptr %12, align 8, !tbaa !34
  store i32 %4, ptr %13, align 4, !tbaa !30
  store i32 %5, ptr %14, align 4, !tbaa !30
  store ptr %6, ptr %15, align 8, !tbaa !35
  store ptr %7, ptr %16, align 8, !tbaa !137
  call void @llvm.lifetime.start.p0(i64 8, ptr %17) #9
  %19 = load ptr, ptr %9, align 8, !tbaa !34
  store ptr %19, ptr %17, align 8, !tbaa !43
  call void @llvm.lifetime.start.p0(i64 4, ptr %18) #9
  store i32 0, ptr %18, align 4, !tbaa !30
  br label %20

20:                                               ; preds = %61, %8
  %21 = load i32, ptr %18, align 4, !tbaa !30
  %22 = load i32, ptr %13, align 4, !tbaa !30
  %23 = icmp slt i32 %21, %22
  br i1 %23, label %25, label %24

24:                                               ; preds = %20
  call void @llvm.lifetime.end.p0(i64 4, ptr %18) #9
  br label %64

25:                                               ; preds = %20
  %26 = load i32, ptr %14, align 4, !tbaa !30
  %27 = icmp ne i32 %26, 0
  br i1 %27, label %28, label %38

28:                                               ; preds = %25
  %29 = load ptr, ptr %10, align 8, !tbaa !34
  %30 = load i32, ptr %18, align 4, !tbaa !30
  %31 = mul nsw i32 4, %30
  %32 = sext i32 %31 to i64
  %33 = getelementptr inbounds i8, ptr %29, i64 %32
  %34 = getelementptr inbounds i8, ptr %33, i64 2
  %35 = load i16, ptr %34, align 1, !tbaa !36
  %36 = call zeroext i16 @av_bswap16(i16 noundef zeroext %35) #10
  %37 = zext i16 %36 to i32
  br label %47

38:                                               ; preds = %25
  %39 = load ptr, ptr %10, align 8, !tbaa !34
  %40 = load i32, ptr %18, align 4, !tbaa !30
  %41 = mul nsw i32 4, %40
  %42 = sext i32 %41 to i64
  %43 = getelementptr inbounds i8, ptr %39, i64 %42
  %44 = getelementptr inbounds i8, ptr %43, i64 2
  %45 = load i16, ptr %44, align 1, !tbaa !36
  %46 = zext i16 %45 to i32
  br label %47

47:                                               ; preds = %38, %28
  %48 = phi i32 [ %37, %28 ], [ %46, %38 ]
  %49 = trunc i32 %48 to i16
  %50 = load ptr, ptr %16, align 8, !tbaa !137
  %51 = call i32 @half2float(i16 noundef zeroext %49, ptr noundef %50)
  %52 = call nsz float @av_int2float(i32 noundef %51)
  %53 = fmul nsz float 6.553500e+04, %52
  %54 = call nsz float @av_clipf_c(float noundef %53, float noundef 0.000000e+00, float noundef 6.553500e+04) #10
  %55 = call i64 @llvm.lrint.i64.f32(float %54)
  %56 = trunc i64 %55 to i16
  %57 = load ptr, ptr %17, align 8, !tbaa !43
  %58 = load i32, ptr %18, align 4, !tbaa !30
  %59 = sext i32 %58 to i64
  %60 = getelementptr inbounds i16, ptr %57, i64 %59
  store i16 %56, ptr %60, align 2, !tbaa !44
  br label %61

61:                                               ; preds = %47
  %62 = load i32, ptr %18, align 4, !tbaa !30
  %63 = add nsw i32 %62, 1
  store i32 %63, ptr %18, align 4, !tbaa !30
  br label %20, !llvm.loop !169

64:                                               ; preds = %24
  call void @llvm.lifetime.end.p0(i64 8, ptr %17) #9
  ret void
}

; Function Attrs: nounwind uwtable
define internal void @read_yaf16le_alpha_c(ptr noundef %0, ptr noundef %1, ptr noundef %2, ptr noundef %3, i32 noundef %4, ptr noundef %5, ptr noundef %6) #2 {
  %8 = alloca ptr, align 8
  %9 = alloca ptr, align 8
  %10 = alloca ptr, align 8
  %11 = alloca ptr, align 8
  %12 = alloca i32, align 4
  %13 = alloca ptr, align 8
  %14 = alloca ptr, align 8
  store ptr %0, ptr %8, align 8, !tbaa !34
  store ptr %1, ptr %9, align 8, !tbaa !34
  store ptr %2, ptr %10, align 8, !tbaa !34
  store ptr %3, ptr %11, align 8, !tbaa !34
  store i32 %4, ptr %12, align 4, !tbaa !30
  store ptr %5, ptr %13, align 8, !tbaa !35
  store ptr %6, ptr %14, align 8, !tbaa !31
  %15 = load ptr, ptr %8, align 8, !tbaa !34
  %16 = load ptr, ptr %9, align 8, !tbaa !34
  %17 = load ptr, ptr %10, align 8, !tbaa !34
  %18 = load ptr, ptr %11, align 8, !tbaa !34
  %19 = load i32, ptr %12, align 4, !tbaa !30
  %20 = load ptr, ptr %13, align 8, !tbaa !35
  %21 = load ptr, ptr %14, align 8, !tbaa !31
  call void @read_yaf16_alpha_c(ptr noundef %15, ptr noundef %16, ptr noundef %17, ptr noundef %18, i32 noundef %19, i32 noundef 0, ptr noundef %20, ptr noundef %21)
  ret void
}