; Function Attrs: nofree norecurse nosync nounwind memory(argmem: readwrite) uwtable
define internal void @read_yaf16le_alpha_c(ptr noundef writeonly captures(none) %0, ptr noundef readonly captures(none) %1, ptr readnone captures(none) %2, ptr readnone captures(none) %3, i32 noundef %4, ptr readnone captures(none) %5, ptr noundef readonly captures(none) %6) #1 {
  %invariant.gep = getelementptr inbounds nuw i8, ptr %1, i64 2
  %8 = icmp sgt i32 %4, 0
  br i1 %8, label %.lr.ph, label %read_yaf16_alpha_c.exit

.lr.ph:                                           ; preds = %7
  %9 = getelementptr inbounds nuw i8, ptr %6, i64 12544
  %10 = getelementptr inbounds nuw i8, ptr %6, i64 12288
  %wide.trip.count = zext nneg i32 %4 to i64
  br label %11

11:                                               ; preds = %.lr.ph, %11
  %indvars.iv = phi i64 [ 0, %.lr.ph ], [ %indvars.iv.next, %11 ]
  %12 = shl nsw i64 %indvars.iv, 2
  %gep = getelementptr inbounds nuw i8, ptr %invariant.gep, i64 %12
  %13 = load i16, ptr %gep, align 1, !tbaa !34
  %14 = zext i16 %13 to i32
  %15 = lshr i32 %14, 10
  %16 = zext nneg i32 %15 to i64
  %17 = getelementptr inbounds nuw [64 x i16], ptr %9, i64 0, i64 %16
  %18 = load i16, ptr %17, align 2, !tbaa !43
  %19 = zext i16 %18 to i32
  %20 = and i32 %14, 1023
  %21 = add nuw nsw i32 %20, %19
  %22 = zext nneg i32 %21 to i64
  %23 = getelementptr inbounds nuw [3072 x i32], ptr %6, i64 0, i64 %22
  %24 = load i32, ptr %23, align 4, !tbaa !42
  %25 = getelementptr inbounds nuw [64 x i32], ptr %10, i64 0, i64 %16
  %26 = load i32, ptr %25, align 4, !tbaa !42
  %27 = add i32 %26, %24
  %28 = bitcast i32 %27 to float
  %29 = fmul nsz float %28, 6.553500e+04
  %30 = fcmp nsz ogt float %29, 0.000000e+00
  %31 = select nsz i1 %30, float %29, float 0.000000e+00
  %32 = fcmp nsz ogt float %31, 6.553500e+04
  %..i.i = select nsz i1 %32, float 6.553500e+04, float %31
  %33 = tail call i64 @llvm.lrint.i64.f32(float %..i.i)
  %34 = trunc i64 %33 to i16
  %35 = getelementptr inbounds nuw i16, ptr %0, i64 %indvars.iv
  store i16 %34, ptr %35, align 2, !tbaa !43
  %indvars.iv.next = add nuw nsw i64 %indvars.iv, 1
  %exitcond.not = icmp eq i64 %indvars.iv.next, %wide.trip.count
  br i1 %exitcond.not, label %read_yaf16_alpha_c.exit, label %11, !llvm.loop !149

read_yaf16_alpha_c.exit:                          ; preds = %11, %7
  ret void
}